; Function Attrs: mustprogress uwtable
define hidden void @_Z4readB5cxx11RN3fmt3v104fileEm(ptr noalias sret(%"class.std::__cxx11::basic_string") align 8 %agg.result, ptr noundef nonnull align 4 dereferenceable(4) %f, i64 noundef %count) local_unnamed_addr #3 personality ptr @__gxx_personality_v0 {
entry:
  %ref.tmp = alloca %"class.std::allocator", align 1
  call void @_ZNSaIcEC1Ev(ptr noundef nonnull align 1 dereferenceable(1) %ref.tmp) #25
  %call.i9 = invoke noundef ptr @_ZNSt7__cxx1112basic_stringIcSt11char_traitsIcESaIcEE13_M_local_dataEv(ptr noundef nonnull align 8 dereferenceable(32) %agg.result)
          to label %call.i.noexc unwind label %lpad

call.i.noexc:                                     ; preds = %entry
  invoke void @_ZNSt7__cxx1112basic_stringIcSt11char_traitsIcESaIcEE12_Alloc_hiderC1EPcRKS3_(ptr noundef nonnull align 8 dereferenceable(8) %agg.result, ptr noundef %call.i9, ptr noundef nonnull align 1 dereferenceable(1) %ref.tmp)
          to label %.noexc unwind label %lpad

.noexc:                                           ; preds = %call.i.noexc
  invoke void @_ZNSt7__cxx1112basic_stringIcSt11char_traitsIcESaIcEE12_M_constructEmc(ptr noundef nonnull align 8 dereferenceable(32) %agg.result, i64 noundef %count, i8 noundef signext 0)
          to label %invoke.cont unwind label %lpad.i

lpad.i:                                           ; preds = %.noexc
  %0 = landingpad { ptr, i32 }
          cleanup
  call void @_ZNSaIcED2Ev(ptr noundef nonnull align 1 dereferenceable(1) %agg.result) #25
  br label %lpad.body

invoke.cont:                                      ; preds = %.noexc
  call void @_ZNSaIcED1Ev(ptr noundef nonnull align 1 dereferenceable(1) %ref.tmp) #25
  br label %do.body

do.body:                                          ; preds = %invoke.cont3, %invoke.cont
  %offset.0 = phi i64 [ 0, %invoke.cont ], [ %add, %invoke.cont3 ]
  %call = invoke noundef nonnull align 1 dereferenceable(1) ptr @_ZNSt7__cxx1112basic_stringIcSt11char_traitsIcESaIcEEixEm(ptr noundef nonnull align 8 dereferenceable(32) %agg.result, i64 noundef %offset.0)
          to label %invoke.cont2 unwind label %lpad1.loopexit

invoke.cont2:                                     ; preds = %do.body
  %sub = sub i64 %count, %offset.0
  %call4 = invoke noundef i64 @_ZN3fmt3v104file4readEPvm(ptr noundef nonnull align 4 dereferenceable(4) %f, ptr noundef nonnull %call, i64 noundef %sub)
          to label %invoke.cont3 unwind label %lpad1.loopexit

invoke.cont3:                                     ; preds = %invoke.cont2
  %add = add i64 %call4, %offset.0
  %cmp = icmp ult i64 %add, %count
  %cmp5 = icmp ne i64 %call4, 0
  %1 = and i1 %cmp5, %cmp
  br i1 %1, label %do.body, label %do.end, !llvm.loop !11

do.end:                                           ; preds = %invoke.cont3
  invoke void @_ZNSt7__cxx1112basic_stringIcSt11char_traitsIcESaIcEE6resizeEm(ptr noundef nonnull align 8 dereferenceable(32) %agg.result, i64 noundef %add)
          to label %nrvo.skipdtor unwind label %lpad1.loopexit.split-lp

lpad:                                             ; preds = %call.i.noexc, %entry
  %2 = landingpad { ptr, i32 }
          cleanup
  br label %lpad.body

lpad.body:                                        ; preds = %lpad.i, %lpad
  %eh.lpad-body = phi { ptr, i32 } [ %2, %lpad ], [ %0, %lpad.i ]
  call void @_ZNSaIcED1Ev(ptr noundef nonnull align 1 dereferenceable(1) %ref.tmp) #25
  br label %eh.resume

lpad1.loopexit:                                   ; preds = %do.body, %invoke.cont2
  %lpad.loopexit = landingpad { ptr, i32 }
          cleanup
  br label %lpad1

lpad1.loopexit.split-lp:                          ; preds = %do.end
  %lpad.loopexit.split-lp = landingpad { ptr, i32 }
          cleanup
  br label %lpad1

lpad1:                                            ; preds = %lpad1.loopexit.split-lp, %lpad1.loopexit
  %lpad.phi = phi { ptr, i32 } [ %lpad.loopexit, %lpad1.loopexit ], [ %lpad.loopexit.split-lp, %lpad1.loopexit.split-lp ]
  call void @_ZNSt7__cxx1112basic_stringIcSt11char_traitsIcESaIcEED1Ev(ptr noundef nonnull align 8 dereferenceable(32) %agg.result) #25
  br label %eh.resume

nrvo.skipdtor:                                    ; preds = %do.end
  ret void

eh.resume:                                        ; preds = %lpad1, %lpad.body
  %.pn = phi { ptr, i32 } [ %lpad.phi, %lpad1 ], [ %eh.lpad-body, %lpad.body ]
  resume { ptr, i32 } %.pn
}